target datalayout = "e-m:e-p270:32:32-p271:32:32-p272:64:64-i64:64-i128:128-f80:128-n8:16:32:64-S128"
target triple = "x86_64-pc-linux-gnu"

%"class.llvm::opt::ArgList" = type { ptr, %"class.llvm::SmallVector", %"class.llvm::DenseMap" }
%"class.llvm::SmallVector" = type { %"class.llvm::SmallVectorImpl", %"struct.llvm::SmallVectorStorage" }
%"class.llvm::SmallVectorImpl" = type { %"class.llvm::SmallVectorTemplateBase" }
%"class.llvm::SmallVectorTemplateBase" = type { %"class.llvm::SmallVectorTemplateCommon" }
%"class.llvm::SmallVectorTemplateCommon" = type { %"class.llvm::SmallVectorBase" }
%"class.llvm::SmallVectorBase" = type { ptr, i32, i32 }
%"struct.llvm::SmallVectorStorage" = type { [128 x i8] }
%"class.llvm::DenseMap" = type <{ ptr, i32, i32, i32, [4 x i8] }>
%"class.llvm::opt::OptSpecifier" = type { i32 }
%"class.llvm::opt::arg_iterator.22" = type <{ ptr, ptr, [1 x %"class.llvm::opt::OptSpecifier"], [4 x i8] }>

; Function Attrs: mustprogress nounwind uwtable
define linkonce_odr hidden void @_ZN4llvm3opt12arg_iteratorIPPNS0_3ArgELj0EE13SkipToNextArgEv(ptr noundef nonnull align 8 dereferenceable(20) %0) #0 comdat align 2 {
  %2 = alloca ptr, align 8
  store ptr %0, ptr %2, align 8
  %3 = load ptr, ptr %2, align 8
  br label %4

4:                                                ; preds = %17, %1
  %5 = getelementptr inbounds nuw %"class.llvm::opt::arg_iterator.22", ptr %3, i32 0, i32 0
  %6 = load ptr, ptr %5, align 8
  %7 = getelementptr inbounds nuw %"class.llvm::opt::arg_iterator.22", ptr %3, i32 0, i32 1
  %8 = load ptr, ptr %7, align 8
  %9 = icmp ne ptr %6, %8
  br i1 %9, label %10, label %21

10:                                               ; preds = %4
  %11 = getelementptr inbounds nuw %"class.llvm::opt::arg_iterator.22", ptr %3, i32 0, i32 0
  %12 = load ptr, ptr %11, align 8
  %13 = load ptr, ptr %12, align 8
  %14 = icmp ne ptr %13, null
  br i1 %14, label %16, label %15

15:                                               ; preds = %10
  br label %17

16:                                               ; preds = %10
  br label %21

17:                                               ; preds = %15
  %18 = getelementptr inbounds nuw %"class.llvm::opt::arg_iterator.22", ptr %3, i32 0, i32 0
  %19 = load ptr, ptr %18, align 8
  %20 = getelementptr inbounds ptr, ptr %19, i32 1
  store ptr %20, ptr %18, align 8
  br label %4, !llvm.loop !9

21:                                               ; preds = %16, %4
  ret void
}

; Function Attrs: mustprogress nounwind uwtable
define linkonce_odr hidden noundef zeroext i1 @_ZN4llvm3opteqENS0_12arg_iteratorIPPNS0_3ArgELj0EEES5_(ptr noundef byval(%"class.llvm::opt::arg_iterator.22") align 8 %0, ptr noundef byval(%"class.llvm::opt::arg_iterator.22") align 8 %1) #0 comdat {
  %3 = getelementptr inbounds nuw %"class.llvm::opt::arg_iterator.22", ptr %0, i32 0, i32 0
  %4 = load ptr, ptr %3, align 8
  %5 = getelementptr inbounds nuw %"class.llvm::opt::arg_iterator.22", ptr %1, i32 0, i32 0
  %6 = load ptr, ptr %5, align 8
  %7 = icmp eq ptr %4, %6
  ret i1 %7
}

; Function Attrs: mustprogress nounwind uwtable
define linkonce_odr hidden void @_ZN4llvm3opt12arg_iteratorIPPNS0_3ArgELj0EEC2ES4_S4_RA1_KNS0_12OptSpecifierE(ptr noundef nonnull align 8 dereferenceable(20) %0, ptr noundef %1, ptr noundef %2, ptr noundef nonnull align 4 dereferenceable(4) %3) unnamed_addr #0 comdat align 2 {
  %5 = alloca ptr, align 8
  %6 = alloca ptr, align 8
  %7 = alloca ptr, align 8
  %8 = alloca ptr, align 8
  %9 = alloca i32, align 4
  store ptr %0, ptr %5, align 8
  store ptr %1, ptr %6, align 8
  store ptr %2, ptr %7, align 8
  store ptr %3, ptr %8, align 8
  %10 = load ptr, ptr %5, align 8
  %11 = getelementptr inbounds nuw %"class.llvm::opt::arg_iterator.22", ptr %10, i32 0, i32 0
  %12 = load ptr, ptr %6, align 8
  store ptr %12, ptr %11, align 8
  %13 = getelementptr inbounds nuw %"class.llvm::opt::arg_iterator.22", ptr %10, i32 0, i32 1
  %14 = load ptr, ptr %7, align 8
  store ptr %14, ptr %13, align 8
  %15 = getelementptr inbounds nuw %"class.llvm::opt::arg_iterator.22", ptr %10, i32 0, i32 2
  %16 = getelementptr inbounds [1 x %"class.llvm::opt::OptSpecifier"], ptr %15, i32 0, i32 0
  %17 = getelementptr inbounds %"class.llvm::opt::OptSpecifier", ptr %16, i64 1
  br label %18

18:                                               ; preds = %18, %4
  %19 = phi ptr [ %16, %4 ], [ %20, %18 ]
  call void @_ZN4llvm3opt12OptSpecifierC2Ev(ptr noundef nonnull align 4 dereferenceable(4) %19) #9
  %20 = getelementptr inbounds %"class.llvm::opt::OptSpecifier", ptr %19, i64 1
  %21 = icmp eq ptr %20, %17
  br i1 %21, label %22, label %18

22:                                               ; preds = %18
  store i32 0, ptr %9, align 4
  br label %23

23:                                               ; preds = %35, %22
  %24 = load i32, ptr %9, align 4
  %25 = icmp ne i32 %24, 0
  br i1 %25, label %26, label %38

26:                                               ; preds = %23
  %27 = load ptr, ptr %8, align 8
  %28 = load i32, ptr %9, align 4
  %29 = zext i32 %28 to i64
  %30 = getelementptr inbounds [1 x %"class.llvm::opt::OptSpecifier"], ptr %27, i64 0, i64 %29
  %31 = getelementptr inbounds nuw %"class.llvm::opt::arg_iterator.22", ptr %10, i32 0, i32 2
  %32 = load i32, ptr %9, align 4
  %33 = zext i32 %32 to i64
  %34 = getelementptr inbounds [1 x %"class.llvm::opt::OptSpecifier"], ptr %31, i64 0, i64 %33
  call void @llvm.memcpy.p0.p0.i64(ptr align 4 %34, ptr align 4 %30, i64 4, i1 false)
  br label %35

35:                                               ; preds = %26
  %36 = load i32, ptr %9, align 4
  %37 = add i32 %36, 1
  store i32 %37, ptr %9, align 4
  br label %23, !llvm.loop !8

38:                                               ; preds = %23
  call void @_ZN4llvm3opt12arg_iteratorIPPNS0_3ArgELj0EE13SkipToNextArgEv(ptr noundef nonnull align 8 dereferenceable(20) %10)
  ret void
}

; Function Attrs: mustprogress nounwind uwtable
define linkonce_odr hidden void @_ZN4llvm3opt12OptSpecifierC2Ev(ptr noundef nonnull align 4 dereferenceable(4) %0) unnamed_addr #0 comdat align 2 {
  %2 = alloca ptr, align 8
  store ptr %0, ptr %2, align 8
  %3 = load ptr, ptr %2, align 8
  %4 = getelementptr inbounds nuw %"class.llvm::opt::OptSpecifier", ptr %3, i32 0, i32 0
  store i32 0, ptr %4, align 4
  ret void
}

; Function Attrs: mustprogress nounwind uwtable
define linkonce_odr hidden noundef ptr @_ZN4llvm25SmallVectorTemplateCommonIPNS_3opt3ArgEvE3endEv(ptr noundef nonnull align 8 dereferenceable(16) %0) #0 comdat align 2 {
  %2 = alloca ptr, align 8
  store ptr %0, ptr %2, align 8
  %3 = load ptr, ptr %2, align 8
  %4 = call noundef ptr @_ZN4llvm25SmallVectorTemplateCommonIPNS_3opt3ArgEvE5beginEv(ptr noundef nonnull align 8 dereferenceable(16) %3)
  %5 = call noundef i64 @_ZNK4llvm15SmallVectorBaseIjE4sizeEv(ptr noundef nonnull align 8 dereferenceable(16) %3)
  %6 = getelementptr inbounds ptr, ptr %4, i64 %5
  ret ptr %6
}

; Function Attrs: mustprogress nounwind uwtable
define linkonce_odr hidden noundef ptr @_ZN4llvm25SmallVectorTemplateCommonIPNS_3opt3ArgEvE5beginEv(ptr noundef nonnull align 8 dereferenceable(16) %0) #0 comdat align 2 {
  %2 = alloca ptr, align 8
  store ptr %0, ptr %2, align 8
  %3 = load ptr, ptr %2, align 8
  %4 = getelementptr inbounds nuw %"class.llvm::SmallVectorBase", ptr %3, i32 0, i32 0
  %5 = load ptr, ptr %4, align 8
  ret ptr %5
}

; Function Attrs: mustprogress nounwind uwtable
define linkonce_odr hidden noundef nonnull align 8 dereferenceable(20) ptr @_ZN4llvm3opt12arg_iteratorIPPNS0_3ArgELj0EEppEv(ptr noundef nonnull align 8 dereferenceable(20) %0) #0 comdat align 2 {
  %2 = alloca ptr, align 8
  store ptr %0, ptr %2, align 8
  %3 = load ptr, ptr %2, align 8
  %4 = getelementptr inbounds nuw %"class.llvm::opt::arg_iterator.22", ptr %3, i32 0, i32 0
  %5 = load ptr, ptr %4, align 8
  %6 = getelementptr inbounds ptr, ptr %5, i32 1
  store ptr %6, ptr %4, align 8
  call void @_ZN4llvm3opt12arg_iteratorIPPNS0_3ArgELj0EE13SkipToNextArgEv(ptr noundef nonnull align 8 dereferenceable(20) %3)
  ret ptr %3
}

; Function Attrs: mustprogress nounwind uwtable
define linkonce_odr hidden noundef nonnull align 8 dereferenceable(8) ptr @_ZNK4llvm3opt12arg_iteratorIPPNS0_3ArgELj0EEdeEv(ptr noundef nonnull align 8 dereferenceable(20) %0) #0 comdat align 2 {
  %2 = alloca ptr, align 8
  store ptr %0, ptr %2, align 8
  %3 = load ptr, ptr %2, align 8
  %4 = getelementptr inbounds nuw %"class.llvm::opt::arg_iterator.22", ptr %3, i32 0, i32 0
  %5 = load ptr, ptr %4, align 8
  ret ptr %5
}

; Function Attrs: mustprogress nounwind uwtable
define linkonce_odr hidden noundef zeroext i1 @_ZN4llvm3optneENS0_12arg_iteratorIPPNS0_3ArgELj0EEES5_(ptr noundef byval(%"class.llvm::opt::arg_iterator.22") align 8 %0, ptr noundef byval(%"class.llvm::opt::arg_iterator.22") align 8 %1) #0 comdat {
  %3 = alloca %"class.llvm::opt::arg_iterator.22", align 8
  %4 = alloca %"class.llvm::opt::arg_iterator.22", align 8
  call void @llvm.memcpy.p0.p0.i64(ptr align 8 %3, ptr align 8 %0, i64 24, i1 false)
  call void @llvm.memcpy.p0.p0.i64(ptr align 8 %4, ptr align 8 %1, i64 24, i1 false)
  %5 = call noundef zeroext i1 @_ZN4llvm3opteqENS0_12arg_iteratorIPPNS0_3ArgELj0EEES5_(ptr noundef byval(%"class.llvm::opt::arg_iterator.22") align 8 %3, ptr noundef byval(%"class.llvm::opt::arg_iterator.22") align 8 %4)
  %6 = xor i1 %5, true
  ret i1 %6
}

; Function Attrs: mustprogress nounwind uwtable
define linkonce_odr hidden void @_ZN4llvm3opt7ArgList3endEv(ptr dead_on_unwind noalias writable sret(%"class.llvm::opt::arg_iterator.22") align 8 %0, ptr noundef nonnull align 8 dereferenceable(176) %1) #0 comdat align 2 {
  %3 = alloca ptr, align 8
  %4 = alloca [1 x %"class.llvm::opt::OptSpecifier"], align 4
  store ptr %1, ptr %3, align 8
  %5 = load ptr, ptr %3, align 8
  %6 = getelementptr inbounds nuw %"class.llvm::opt::ArgList", ptr %5, i32 0, i32 1
  %7 = call noundef ptr @_ZN4llvm25SmallVectorTemplateCommonIPNS_3opt3ArgEvE3endEv(ptr noundef nonnull align 8 dereferenceable(16) %6)
  %8 = getelementptr inbounds nuw %"class.llvm::opt::ArgList", ptr %5, i32 0, i32 1
  %9 = call noundef ptr @_ZN4llvm25SmallVectorTemplateCommonIPNS_3opt3ArgEvE3endEv(ptr noundef nonnull align 8 dereferenceable(16) %8)
  %10 = getelementptr inbounds %"class.llvm::opt::OptSpecifier", ptr %4, i64 1
  br label %11

11:                                               ; preds = %11, %2
  %12 = phi ptr [ %4, %2 ], [ %13, %11 ]
  call void @llvm.memset.p0.i64(ptr align 4 %12, i8 0, i64 4, i1 false)
  call void @_ZN4llvm3opt12OptSpecifierC2Ev(ptr noundef nonnull align 4 dereferenceable(4) %12) #9
  %13 = getelementptr inbounds %"class.llvm::opt::OptSpecifier", ptr %12, i64 1
  %14 = icmp eq ptr %13, %10
  br i1 %14, label %15, label %11

15:                                               ; preds = %11
  call void @_ZN4llvm3opt12arg_iteratorIPPNS0_3ArgELj0EEC2ES4_S4_RA1_KNS0_12OptSpecifierE(ptr noundef nonnull align 8 dereferenceable(20) %0, ptr noundef %7, ptr noundef %9, ptr noundef nonnull align 4 dereferenceable(4) %4)
  ret void
}

; Function Attrs: mustprogress nounwind uwtable
define linkonce_odr hidden void @_ZN4llvm3opt7ArgList5beginEv(ptr dead_on_unwind noalias writable sret(%"class.llvm::opt::arg_iterator.22") align 8 %0, ptr noundef nonnull align 8 dereferenceable(176) %1) #0 comdat align 2 {
  %3 = alloca ptr, align 8
  %4 = alloca [1 x %"class.llvm::opt::OptSpecifier"], align 4
  store ptr %1, ptr %3, align 8
  %5 = load ptr, ptr %3, align 8
  %6 = getelementptr inbounds nuw %"class.llvm::opt::ArgList", ptr %5, i32 0, i32 1
  %7 = call noundef ptr @_ZN4llvm25SmallVectorTemplateCommonIPNS_3opt3ArgEvE5beginEv(ptr noundef nonnull align 8 dereferenceable(16) %6)
  %8 = getelementptr inbounds nuw %"class.llvm::opt::ArgList", ptr %5, i32 0, i32 1
  %9 = call noundef ptr @_ZN4llvm25SmallVectorTemplateCommonIPNS_3opt3ArgEvE3endEv(ptr noundef nonnull align 8 dereferenceable(16) %8)
  %10 = getelementptr inbounds %"class.llvm::opt::OptSpecifier", ptr %4, i64 1
  br label %11

11:                                               ; preds = %11, %2
  %12 = phi ptr [ %4, %2 ], [ %13, %11 ]
  call void @llvm.memset.p0.i64(ptr align 4 %12, i8 0, i64 4, i1 false)
  call void @_ZN4llvm3opt12OptSpecifierC2Ev(ptr noundef nonnull align 4 dereferenceable(4) %12) #9
  %13 = getelementptr inbounds %"class.llvm::opt::OptSpecifier", ptr %12, i64 1
  %14 = icmp eq ptr %13, %10
  br i1 %14, label %15, label %11

15:                                               ; preds = %11
  call void @_ZN4llvm3opt12arg_iteratorIPPNS0_3ArgELj0EEC2ES4_S4_RA1_KNS0_12OptSpecifierE(ptr noundef nonnull align 8 dereferenceable(20) %0, ptr noundef %7, ptr noundef %9, ptr noundef nonnull align 4 dereferenceable(4) %4)
  ret void
}

; Function Attrs: mustprogress nounwind uwtable
define dso_local void @_ZN4llvm3opt12InputArgList13releaseMemoryEv(ptr noundef nonnull align 8 dereferenceable(352) %0) #0 align 2 {
  %2 = alloca ptr, align 8
  %3 = alloca ptr, align 8
  %4 = alloca %"class.llvm::opt::arg_iterator.22", align 8
  %5 = alloca %"class.llvm::opt::arg_iterator.22", align 8
  %6 = alloca %"class.llvm::opt::arg_iterator.22", align 8
  %7 = alloca %"class.llvm::opt::arg_iterator.22", align 8
  %8 = alloca ptr, align 8
  store ptr %0, ptr %2, align 8
  %9 = load ptr, ptr %2, align 8
  store ptr %9, ptr %3, align 8
  %10 = load ptr, ptr %3, align 8
  call void @_ZN4llvm3opt7ArgList5beginEv(ptr dead_on_unwind writable sret(%"class.llvm::opt::arg_iterator.22") align 8 %4, ptr noundef nonnull align 8 dereferenceable(176) %10)
  %11 = load ptr, ptr %3, align 8
  call void @_ZN4llvm3opt7ArgList3endEv(ptr dead_on_unwind writable sret(%"class.llvm::opt::arg_iterator.22") align 8 %5, ptr noundef nonnull align 8 dereferenceable(176) %11)
  br label %12

12:                                               ; preds = %21, %1
  call void @llvm.memcpy.p0.p0.i64(ptr align 8 %6, ptr align 8 %4, i64 24, i1 false)
  call void @llvm.memcpy.p0.p0.i64(ptr align 8 %7, ptr align 8 %5, i64 24, i1 false)
  %13 = call noundef zeroext i1 @_ZN4llvm3optneENS0_12arg_iteratorIPPNS0_3ArgELj0EEES5_(ptr noundef byval(%"class.llvm::opt::arg_iterator.22") align 8 %6, ptr noundef byval(%"class.llvm::opt::arg_iterator.22") align 8 %7)
  br i1 %13, label %14, label %23

14:                                               ; preds = %12
  %15 = call noundef nonnull align 8 dereferenceable(8) ptr @_ZNK4llvm3opt12arg_iteratorIPPNS0_3ArgELj0EEdeEv(ptr noundef nonnull align 8 dereferenceable(20) %4)
  %16 = load ptr, ptr %15, align 8
  store ptr %16, ptr %8, align 8
  %17 = load ptr, ptr %8, align 8
  %18 = icmp eq ptr %17, null
  br i1 %18, label %20, label %19

19:                                               ; preds = %14
  call void @_ZN4llvm3opt3ArgD1Ev(ptr noundef nonnull align 8 dereferenceable(88) %17) #9
  call void @_ZdlPvm(ptr noundef %17, i64 noundef 88) #10
  br label %20

20:                                               ; preds = %19, %14
  br label %21

21:                                               ; preds = %20
  %22 = call noundef nonnull align 8 dereferenceable(20) ptr @_ZN4llvm3opt12arg_iteratorIPPNS0_3ArgELj0EEppEv(ptr noundef nonnull align 8 dereferenceable(20) %4)
  br label %12

23:                                               ; preds = %12
  ret void
}