; Function Attrs: mustprogress nounwind uwtable
define dso_local void @_ZN4llvm3opt12InputArgList13releaseMemoryEv(ptr noundef nonnull align 8 dereferenceable(352) %0) local_unnamed_addr #0 align 2 {
  %2 = getelementptr inbounds nuw i8, ptr %0, i64 8
  %3 = load ptr, ptr %2, align 8, !noalias !64
  %4 = tail call noundef i64 @_ZNK4llvm15SmallVectorBaseIjE4sizeEv(ptr noundef nonnull align 8 dereferenceable(16) %2) #16, !noalias !64
  %5 = getelementptr inbounds ptr, ptr %3, i64 %4
  %.not2.i.i.i = icmp eq i64 %4, 0
  br i1 %.not2.i.i.i, label %_ZN4llvm3opt7ArgList5beginEv.exit, label %.lr.ph.i.i.preheader.i

.lr.ph.i.i.preheader.i:                           ; preds = %1
  %6 = load ptr, ptr %3, align 8, !noalias !64
  %.not1.i.i1.i = icmp eq ptr %6, null
  br i1 %.not1.i.i1.i, label %.lr.ph.i, label %_ZN4llvm3opt7ArgList5beginEv.exit

.lr.ph.i.i.i:                                     ; preds = %.lr.ph.i
  %7 = load ptr, ptr %9, align 8, !noalias !64
  %.not1.i.i.i = icmp eq ptr %7, null
  br i1 %.not1.i.i.i, label %.lr.ph.i, label %_ZN4llvm3opt7ArgList5beginEv.exit, !llvm.loop !67

.lr.ph.i:                                         ; preds = %.lr.ph.i.i.preheader.i, %.lr.ph.i.i.i
  %8 = phi ptr [ %9, %.lr.ph.i.i.i ], [ %3, %.lr.ph.i.i.preheader.i ]
  %9 = getelementptr inbounds nuw i8, ptr %8, i64 8
  %.not.i.i.i = icmp eq ptr %9, %5
  br i1 %.not.i.i.i, label %_ZN4llvm3opt7ArgList5beginEv.exit, label %.lr.ph.i.i.i, !llvm.loop !67

_ZN4llvm3opt7ArgList5beginEv.exit:                ; preds = %.lr.ph.i.i.i, %.lr.ph.i, %.lr.ph.i.i.preheader.i, %1
  %.sroa.016.1 = phi ptr [ %3, %1 ], [ %3, %.lr.ph.i.i.preheader.i ], [ %5, %.lr.ph.i ], [ %9, %.lr.ph.i.i.i ]
  %10 = load ptr, ptr %2, align 8, !noalias !68
  %11 = tail call noundef i64 @_ZNK4llvm15SmallVectorBaseIjE4sizeEv(ptr noundef nonnull align 8 dereferenceable(16) %2) #16, !noalias !68
  %12 = load ptr, ptr %2, align 8, !noalias !68
  %13 = tail call noundef i64 @_ZNK4llvm15SmallVectorBaseIjE4sizeEv(ptr noundef nonnull align 8 dereferenceable(16) %2) #16, !noalias !68
  %14 = getelementptr inbounds ptr, ptr %10, i64 %11
  %15 = getelementptr inbounds ptr, ptr %12, i64 %13
  %.not2.i.i.i5 = icmp eq ptr %14, %15
  br i1 %.not2.i.i.i5, label %_ZN4llvm3opt7ArgList3endEv.exit, label %.lr.ph.i.i.preheader.i6

.lr.ph.i.i.preheader.i6:                          ; preds = %_ZN4llvm3opt7ArgList5beginEv.exit
  %16 = load ptr, ptr %14, align 8, !noalias !68
  %.not1.i.i1.i7 = icmp eq ptr %16, null
  br i1 %.not1.i.i1.i7, label %.lr.ph.i9, label %_ZN4llvm3opt7ArgList3endEv.exit

.lr.ph.i.i.i11:                                   ; preds = %.lr.ph.i9
  %17 = load ptr, ptr %19, align 8, !noalias !68
  %.not1.i.i.i12 = icmp eq ptr %17, null
  br i1 %.not1.i.i.i12, label %.lr.ph.i9, label %_ZN4llvm3opt7ArgList3endEv.exit, !llvm.loop !67

.lr.ph.i9:                                        ; preds = %.lr.ph.i.i.preheader.i6, %.lr.ph.i.i.i11
  %18 = phi ptr [ %19, %.lr.ph.i.i.i11 ], [ %14, %.lr.ph.i.i.preheader.i6 ]
  %19 = getelementptr inbounds nuw i8, ptr %18, i64 8
  %.not.i.i.i10 = icmp eq ptr %19, %15
  br i1 %.not.i.i.i10, label %_ZN4llvm3opt7ArgList3endEv.exit, label %.lr.ph.i.i.i11, !llvm.loop !67

_ZN4llvm3opt7ArgList3endEv.exit:                  ; preds = %.lr.ph.i.i.i11, %.lr.ph.i9, %.lr.ph.i.i.preheader.i6, %_ZN4llvm3opt7ArgList5beginEv.exit
  %.sroa.0.0 = phi ptr [ %14, %_ZN4llvm3opt7ArgList5beginEv.exit ], [ %14, %.lr.ph.i.i.preheader.i6 ], [ %19, %.lr.ph.i.i.i11 ], [ %15, %.lr.ph.i9 ]
  %.not29 = icmp eq ptr %.sroa.016.1, %.sroa.0.0
  br i1 %.not29, label %._crit_edge, label %.lr.ph

.lr.ph:                                           ; preds = %_ZN4llvm3opt7ArgList3endEv.exit, %_ZN4llvm3opt12arg_iteratorIPPNS0_3ArgELj0EEppEv.exit
  %.sroa.016.030 = phi ptr [ %.sroa.016.3, %_ZN4llvm3opt12arg_iteratorIPPNS0_3ArgELj0EEppEv.exit ], [ %.sroa.016.1, %_ZN4llvm3opt7ArgList3endEv.exit ]
  %20 = load ptr, ptr %.sroa.016.030, align 8
  %21 = icmp eq ptr %20, null
  br i1 %21, label %23, label %22

22:                                               ; preds = %.lr.ph
  tail call void @_ZN4llvm3opt3ArgD1Ev(ptr noundef nonnull align 8 dereferenceable(88) %20) #16
  tail call void @_ZdlPvm(ptr noundef nonnull %20, i64 noundef 88) #19
  br label %23

23:                                               ; preds = %.lr.ph, %22
  %24 = getelementptr inbounds nuw i8, ptr %.sroa.016.030, i64 8
  %.not2.i.i = icmp eq ptr %24, %5
  br i1 %.not2.i.i, label %_ZN4llvm3opt12arg_iteratorIPPNS0_3ArgELj0EEppEv.exit, label %.lr.ph.i.i

.lr.ph.i.i:                                       ; preds = %23, %26
  %.sroa.016.2 = phi ptr [ %27, %26 ], [ %24, %23 ]
  %25 = load ptr, ptr %.sroa.016.2, align 8
  %.not1.i.i = icmp eq ptr %25, null
  br i1 %.not1.i.i, label %26, label %_ZN4llvm3opt12arg_iteratorIPPNS0_3ArgELj0EEppEv.exit

26:                                               ; preds = %.lr.ph.i.i
  %27 = getelementptr inbounds nuw i8, ptr %.sroa.016.2, i64 8
  %.not.i.i = icmp eq ptr %27, %5
  br i1 %.not.i.i, label %_ZN4llvm3opt12arg_iteratorIPPNS0_3ArgELj0EEppEv.exit, label %.lr.ph.i.i, !llvm.loop !67

_ZN4llvm3opt12arg_iteratorIPPNS0_3ArgELj0EEppEv.exit: ; preds = %.lr.ph.i.i, %26, %23
  %.sroa.016.3 = phi ptr [ %24, %23 ], [ %.sroa.016.2, %.lr.ph.i.i ], [ %27, %26 ]
  %.not = icmp eq ptr %.sroa.016.3, %.sroa.0.0
  br i1 %.not, label %._crit_edge, label %.lr.ph

._crit_edge:                                      ; preds = %_ZN4llvm3opt12arg_iteratorIPPNS0_3ArgELj0EEppEv.exit, %_ZN4llvm3opt7ArgList3endEv.exit
  ret void
}